target datalayout = "e-m:e-p270:32:32-p271:32:32-p272:64:64-i64:64-i128:128-f80:128-n8:16:32:64-S128"
target triple = "x86_64-pc-linux-gnu"

@pdcp_security_key_hash = internal global ptr null, align 8
@global_pdcp_ignore_sec = internal global i8 0, align 1
@pdcp_security_hash = internal global ptr null, align 8
@pdcp_security_result_hash = internal global ptr null, align 8
@pdcp_sequence_analysis_channel_hash = internal global ptr null, align 8
@proto_register_pdcp_lte.ett = internal global [6 x ptr] [ptr @ett_pdcp, ptr @ett_pdcp_configuration, ptr @ett_pdcp_packet, ptr @ett_pdcp_lte_sequence_analysis, ptr @ett_pdcp_report_bitmap, ptr @ett_pdcp_security], align 16
@.str.167 = private unnamed_addr constant [9 x i8] c"PDCP-LTE\00", align 1
@.str.168 = private unnamed_addr constant [9 x i8] c"pdcp-lte\00", align 1
@proto_pdcp_lte = hidden global i32 0, align 4
@.str.169 = private unnamed_addr constant [32 x i8] c"show_feedback_option_tag_length\00", align 1
@.str.170 = private unnamed_addr constant [22 x i8] c"show_user_plane_as_ip\00", align 1
@.str.171 = private unnamed_addr constant [40 x i8] c"Show uncompressed User-Plane data as IP\00", align 1
@global_pdcp_dissect_user_plane_as_ip = internal global i8 1, align 1
@.str.172 = private unnamed_addr constant [29 x i8] c"show_signalling_plane_as_rrc\00", align 1
@.str.173 = private unnamed_addr constant [45 x i8] c"Show unciphered Signalling-Plane data as RRC\00", align 1
@global_pdcp_dissect_signalling_plane_as_rrc = internal global i8 1, align 1
@.str.174 = private unnamed_addr constant [23 x i8] c"check_sequence_numbers\00", align 1
@.str.175 = private unnamed_addr constant [28 x i8] c"Do sequence number analysis\00", align 1
@global_pdcp_check_sequence_numbers = internal global i32 1, align 4
@.str.176 = private unnamed_addr constant [13 x i8] c"dissect_rohc\00", align 1
@.str.177 = private unnamed_addr constant [28 x i8] c"Attempt to decode ROHC data\00", align 1
@global_pdcp_dissect_rohc = internal global i8 0, align 1
@.str.178 = private unnamed_addr constant [28 x i8] c"heuristic_pdcp_lte_over_udp\00", align 1
@.str.179 = private unnamed_addr constant [14 x i8] c"layer_to_show\00", align 1
@.str.180 = private unnamed_addr constant [40 x i8] c"Which layer info to show in Info column\00", align 1
@.str.181 = private unnamed_addr constant [56 x i8] c"Can show RLC, PDCP or Traffic layer info in Info column\00", align 1
@global_pdcp_lte_layer_to_show = internal global i32 0, align 4
@.str.182 = private unnamed_addr constant [22 x i8] c"PDCP UE security keys\00", align 1
@.str.183 = private unnamed_addr constant [17 x i8] c"pdcp_lte_ue_keys\00", align 1
@uat_ue_keys_records = internal global ptr null, align 8
@num_ue_keys_uat = internal global i32 0, align 4
@ue_keys_uat = internal global ptr null, align 8
@.str.184 = private unnamed_addr constant [14 x i8] c"ue_keys_table\00", align 1
@.str.185 = private unnamed_addr constant [13 x i8] c"PDCP UE Keys\00", align 1
@.str.186 = private unnamed_addr constant [24 x i8] c"Preconfigured PDCP keys\00", align 1
@.str.187 = private unnamed_addr constant [28 x i8] c"default_ciphering_algorithm\00", align 1
@.str.188 = private unnamed_addr constant [44 x i8] c"Ciphering algorithm to use if not signalled\00", align 1
@.str.189 = private unnamed_addr constant [48 x i8] c"If RRC Security Info not seen, e.g. in Handover\00", align 1
@global_default_ciphering_algorithm = internal global i32 0, align 4
@.str.190 = private unnamed_addr constant [28 x i8] c"default_integrity_algorithm\00", align 1
@.str.191 = private unnamed_addr constant [44 x i8] c"Integrity algorithm to use if not signalled\00", align 1
@global_default_integrity_algorithm = internal global i32 0, align 4
@.str.192 = private unnamed_addr constant [20 x i8] c"decipher_signalling\00", align 1
@.str.193 = private unnamed_addr constant [42 x i8] c"Attempt to decipher Signalling (RRC) SDUs\00", align 1
@.str.194 = private unnamed_addr constant [90 x i8] c"N.B. only possible if build with algorithm support, and have key available and configured\00", align 1
@global_pdcp_decipher_signalling = internal global i8 1, align 1
@.str.195 = private unnamed_addr constant [19 x i8] c"decipher_userplane\00", align 1
@.str.196 = private unnamed_addr constant [41 x i8] c"Attempt to decipher User-plane (IP) SDUs\00", align 1
@global_pdcp_decipher_userplane = internal global i8 0, align 1
@.str.197 = private unnamed_addr constant [17 x i8] c"verify_integrity\00", align 1
@.str.198 = private unnamed_addr constant [39 x i8] c"Attempt to check integrity calculation\00", align 1
@global_pdcp_check_integrity = internal global i8 1, align 1
@.str.199 = private unnamed_addr constant [22 x i8] c"ignore_rrc_sec_params\00", align 1
@.str.200 = private unnamed_addr constant [31 x i8] c"Ignore RRC security parameters\00", align 1
@.str.201 = private unnamed_addr constant [111 x i8] c"Ignore the LTE RRC security algorithm configuration, to be used when PDCP is already deciphered in the capture\00", align 1
@pdcp_lte_sequence_analysis_report_hash = internal global ptr null, align 8

; Function Attrs: null_pointer_is_valid sspstrong uwtable
define hidden void @proto_register_pdcp_lte() #0 {
  %1 = alloca ptr, align 8
  %2 = alloca ptr, align 8
  call void @llvm.lifetime.start.p0(i64 8, ptr %1) #15
  call void @llvm.lifetime.start.p0(i64 8, ptr %2) #15
  %3 = call i32 @proto_register_protocol(ptr noundef @.str.167, ptr noundef @.str.167, ptr noundef @.str.168)
  store i32 %3, ptr @proto_pdcp_lte, align 4
  %4 = load i32, ptr @proto_pdcp_lte, align 4
  call void @proto_register_field_array(i32 noundef %4, ptr noundef @proto_register_pdcp_lte.hf, i32 noundef 64)
  call void @proto_register_subtree_array(ptr noundef @proto_register_pdcp_lte.ett, i32 noundef 6)
  %5 = load i32, ptr @proto_pdcp_lte, align 4
  %6 = call ptr @expert_register_protocol(i32 noundef %5)
  store ptr %6, ptr %2, align 8
  %7 = load ptr, ptr %2, align 8
  call void @expert_register_field_array(ptr noundef %7, ptr noundef @proto_register_pdcp_lte.ei, i32 noundef 7)
  %8 = load i32, ptr @proto_pdcp_lte, align 4
  %9 = call ptr @register_dissector(ptr noundef @.str.168, ptr noundef @dissect_pdcp_lte, i32 noundef %8)
  %10 = load i32, ptr @proto_pdcp_lte, align 4
  %11 = call ptr @prefs_register_protocol(i32 noundef %10, ptr noundef null)
  store ptr %11, ptr %1, align 8
  %12 = load ptr, ptr %1, align 8
  call void @prefs_register_obsolete_preference(ptr noundef %12, ptr noundef @.str.169)
  %13 = load ptr, ptr %1, align 8
  call void @prefs_register_bool_preference(ptr noundef %13, ptr noundef @.str.170, ptr noundef @.str.171, ptr noundef @.str.171, ptr noundef @global_pdcp_dissect_user_plane_as_ip)
  %14 = load ptr, ptr %1, align 8
  call void @prefs_register_bool_preference(ptr noundef %14, ptr noundef @.str.172, ptr noundef @.str.173, ptr noundef @.str.173, ptr noundef @global_pdcp_dissect_signalling_plane_as_rrc)
  %15 = load ptr, ptr %1, align 8
  call void @prefs_register_enum_preference(ptr noundef %15, ptr noundef @.str.174, ptr noundef @.str.175, ptr noundef @.str.175, ptr noundef @global_pdcp_check_sequence_numbers, ptr noundef @proto_register_pdcp_lte.sequence_analysis_vals, i1 noundef zeroext false)
  %16 = load ptr, ptr %1, align 8
  call void @prefs_register_bool_preference(ptr noundef %16, ptr noundef @.str.176, ptr noundef @.str.177, ptr noundef @.str.177, ptr noundef @global_pdcp_dissect_rohc)
  %17 = load ptr, ptr %1, align 8
  call void @prefs_register_obsolete_preference(ptr noundef %17, ptr noundef @.str.178)
  %18 = load ptr, ptr %1, align 8
  call void @prefs_register_enum_preference(ptr noundef %18, ptr noundef @.str.179, ptr noundef @.str.180, ptr noundef @.str.181, ptr noundef @global_pdcp_lte_layer_to_show, ptr noundef @proto_register_pdcp_lte.show_info_col_vals, i1 noundef zeroext false)
  %19 = call ptr @uat_new(ptr noundef @.str.182, i64 noundef 88, ptr noundef @.str.183, i1 noundef zeroext true, ptr noundef @uat_ue_keys_records, ptr noundef @num_ue_keys_uat, i32 noundef 1, ptr noundef null, ptr noundef @uat_ue_keys_record_copy_cb, ptr noundef @uat_ue_keys_record_update_cb, ptr noundef @uat_ue_keys_record_free_cb, ptr noundef null, ptr noundef null, ptr noundef @proto_register_pdcp_lte.ue_keys_uat_flds)
  store ptr %19, ptr @ue_keys_uat, align 8
  %20 = load ptr, ptr %1, align 8
  %21 = load ptr, ptr @ue_keys_uat, align 8
  call void @prefs_register_uat_preference(ptr noundef %20, ptr noundef @.str.184, ptr noundef @.str.185, ptr noundef @.str.186, ptr noundef %21)
  %22 = load ptr, ptr %1, align 8
  call void @prefs_register_enum_preference(ptr noundef %22, ptr noundef @.str.187, ptr noundef @.str.188, ptr noundef @.str.189, ptr noundef @global_default_ciphering_algorithm, ptr noundef @proto_register_pdcp_lte.default_ciphering_algorithm_vals, i1 noundef zeroext false)
  %23 = load ptr, ptr %1, align 8
  call void @prefs_register_enum_preference(ptr noundef %23, ptr noundef @.str.190, ptr noundef @.str.191, ptr noundef @.str.189, ptr noundef @global_default_integrity_algorithm, ptr noundef @proto_register_pdcp_lte.default_integrity_algorithm_vals, i1 noundef zeroext false)
  %24 = load ptr, ptr %1, align 8
  call void @prefs_register_bool_preference(ptr noundef %24, ptr noundef @.str.192, ptr noundef @.str.193, ptr noundef @.str.194, ptr noundef @global_pdcp_decipher_signalling)
  %25 = load ptr, ptr %1, align 8
  call void @prefs_register_bool_preference(ptr noundef %25, ptr noundef @.str.195, ptr noundef @.str.196, ptr noundef @.str.194, ptr noundef @global_pdcp_decipher_userplane)
  %26 = load ptr, ptr %1, align 8
  call void @prefs_register_bool_preference(ptr noundef %26, ptr noundef @.str.197, ptr noundef @.str.198, ptr noundef @.str.194, ptr noundef @global_pdcp_check_integrity)
  %27 = load ptr, ptr %1, align 8
  call void @prefs_register_bool_preference(ptr noundef %27, ptr noundef @.str.199, ptr noundef @.str.200, ptr noundef @.str.201, ptr noundef @global_pdcp_ignore_sec)
  %28 = call ptr @wmem_epan_scope()
  %29 = call ptr @wmem_file_scope()
  %30 = call noalias ptr @wmem_map_new_autoreset(ptr noundef %28, ptr noundef %29, ptr noundef @g_direct_hash, ptr noundef @g_direct_equal)
  store ptr %30, ptr @pdcp_sequence_analysis_channel_hash, align 8
  %31 = call ptr @wmem_epan_scope()
  %32 = call ptr @wmem_file_scope()
  %33 = call noalias ptr @wmem_map_new_autoreset(ptr noundef %31, ptr noundef %32, ptr noundef @pdcp_result_hash_func, ptr noundef @pdcp_result_hash_equal)
  store ptr %33, ptr @pdcp_lte_sequence_analysis_report_hash, align 8
  %34 = call ptr @wmem_epan_scope()
  %35 = call ptr @wmem_file_scope()
  %36 = call noalias ptr @wmem_map_new_autoreset(ptr noundef %34, ptr noundef %35, ptr noundef @g_direct_hash, ptr noundef @g_direct_equal)
  store ptr %36, ptr @pdcp_security_hash, align 8
  %37 = call ptr @wmem_epan_scope()
  %38 = call ptr @wmem_file_scope()
  %39 = call noalias ptr @wmem_map_new_autoreset(ptr noundef %37, ptr noundef %38, ptr noundef @pdcp_lte_ueid_frame_hash_func, ptr noundef @pdcp_lte_ueid_frame_hash_equal)
  store ptr %39, ptr @pdcp_security_result_hash, align 8
  %40 = call ptr @wmem_epan_scope()
  %41 = call ptr @wmem_file_scope()
  %42 = call noalias ptr @wmem_map_new_autoreset(ptr noundef %40, ptr noundef %41, ptr noundef @g_direct_hash, ptr noundef @g_direct_equal)
  store ptr %42, ptr @pdcp_security_key_hash, align 8
  call void @llvm.lifetime.end.p0(i64 8, ptr %2) #15
  call void @llvm.lifetime.end.p0(i64 8, ptr %1) #15
  ret void
}