; Function Attrs: null_pointer_is_valid sspstrong uwtable
define hidden void @proto_register_pdcp_lte() local_unnamed_addr #0 {
  %1 = tail call i32 @proto_register_protocol(ptr noundef nonnull @.str.167, ptr noundef nonnull @.str.167, ptr noundef nonnull @.str.168)
  store i32 %1, ptr @proto_pdcp_lte, align 4
  tail call void @proto_register_field_array(i32 noundef %1, ptr noundef nonnull @proto_register_pdcp_lte.hf, i32 noundef 64)
  tail call void @proto_register_subtree_array(ptr noundef nonnull @proto_register_pdcp_lte.ett, i32 noundef 6)
  %2 = load i32, ptr @proto_pdcp_lte, align 4
  %3 = tail call ptr @expert_register_protocol(i32 noundef %2)
  tail call void @expert_register_field_array(ptr noundef %3, ptr noundef nonnull @proto_register_pdcp_lte.ei, i32 noundef 7)
  %4 = load i32, ptr @proto_pdcp_lte, align 4
  %5 = tail call ptr @register_dissector(ptr noundef nonnull @.str.168, ptr noundef nonnull @dissect_pdcp_lte, i32 noundef %4)
  %6 = load i32, ptr @proto_pdcp_lte, align 4
  %7 = tail call ptr @prefs_register_protocol(i32 noundef %6, ptr noundef null)
  tail call void @prefs_register_obsolete_preference(ptr noundef %7, ptr noundef nonnull @.str.169)
  tail call void @prefs_register_bool_preference(ptr noundef %7, ptr noundef nonnull @.str.170, ptr noundef nonnull @.str.171, ptr noundef nonnull @.str.171, ptr noundef nonnull @global_pdcp_dissect_user_plane_as_ip)
  tail call void @prefs_register_bool_preference(ptr noundef %7, ptr noundef nonnull @.str.172, ptr noundef nonnull @.str.173, ptr noundef nonnull @.str.173, ptr noundef nonnull @global_pdcp_dissect_signalling_plane_as_rrc)
  tail call void @prefs_register_enum_preference(ptr noundef %7, ptr noundef nonnull @.str.174, ptr noundef nonnull @.str.175, ptr noundef nonnull @.str.175, ptr noundef nonnull @global_pdcp_check_sequence_numbers, ptr noundef nonnull @proto_register_pdcp_lte.sequence_analysis_vals, i1 noundef zeroext false)
  tail call void @prefs_register_bool_preference(ptr noundef %7, ptr noundef nonnull @.str.176, ptr noundef nonnull @.str.177, ptr noundef nonnull @.str.177, ptr noundef nonnull @global_pdcp_dissect_rohc)
  tail call void @prefs_register_obsolete_preference(ptr noundef %7, ptr noundef nonnull @.str.178)
  tail call void @prefs_register_enum_preference(ptr noundef %7, ptr noundef nonnull @.str.179, ptr noundef nonnull @.str.180, ptr noundef nonnull @.str.181, ptr noundef nonnull @global_pdcp_lte_layer_to_show, ptr noundef nonnull @proto_register_pdcp_lte.show_info_col_vals, i1 noundef zeroext false)
  %8 = tail call ptr @uat_new(ptr noundef nonnull @.str.182, i64 noundef 88, ptr noundef nonnull @.str.183, i1 noundef zeroext true, ptr noundef nonnull @uat_ue_keys_records, ptr noundef nonnull @num_ue_keys_uat, i32 noundef 1, ptr noundef null, ptr noundef nonnull @uat_ue_keys_record_copy_cb, ptr noundef nonnull @uat_ue_keys_record_update_cb, ptr noundef nonnull @uat_ue_keys_record_free_cb, ptr noundef null, ptr noundef null, ptr noundef nonnull @proto_register_pdcp_lte.ue_keys_uat_flds)
  store ptr %8, ptr @ue_keys_uat, align 8
  tail call void @prefs_register_uat_preference(ptr noundef %7, ptr noundef nonnull @.str.184, ptr noundef nonnull @.str.185, ptr noundef nonnull @.str.186, ptr noundef %8)
  tail call void @prefs_register_enum_preference(ptr noundef %7, ptr noundef nonnull @.str.187, ptr noundef nonnull @.str.188, ptr noundef nonnull @.str.189, ptr noundef nonnull @global_default_ciphering_algorithm, ptr noundef nonnull @proto_register_pdcp_lte.default_ciphering_algorithm_vals, i1 noundef zeroext false)
  tail call void @prefs_register_enum_preference(ptr noundef %7, ptr noundef nonnull @.str.190, ptr noundef nonnull @.str.191, ptr noundef nonnull @.str.189, ptr noundef nonnull @global_default_integrity_algorithm, ptr noundef nonnull @proto_register_pdcp_lte.default_integrity_algorithm_vals, i1 noundef zeroext false)
  tail call void @prefs_register_bool_preference(ptr noundef %7, ptr noundef nonnull @.str.192, ptr noundef nonnull @.str.193, ptr noundef nonnull @.str.194, ptr noundef nonnull @global_pdcp_decipher_signalling)
  tail call void @prefs_register_bool_preference(ptr noundef %7, ptr noundef nonnull @.str.195, ptr noundef nonnull @.str.196, ptr noundef nonnull @.str.194, ptr noundef nonnull @global_pdcp_decipher_userplane)
  tail call void @prefs_register_bool_preference(ptr noundef %7, ptr noundef nonnull @.str.197, ptr noundef nonnull @.str.198, ptr noundef nonnull @.str.194, ptr noundef nonnull @global_pdcp_check_integrity)
  tail call void @prefs_register_bool_preference(ptr noundef %7, ptr noundef nonnull @.str.199, ptr noundef nonnull @.str.200, ptr noundef nonnull @.str.201, ptr noundef nonnull @global_pdcp_ignore_sec)
  %9 = tail call ptr @wmem_epan_scope()
  %10 = tail call ptr @wmem_file_scope()
  %11 = tail call noalias ptr @wmem_map_new_autoreset(ptr noundef %9, ptr noundef %10, ptr noundef nonnull @g_direct_hash, ptr noundef nonnull @g_direct_equal)
  store ptr %11, ptr @pdcp_sequence_analysis_channel_hash, align 8
  %12 = tail call ptr @wmem_epan_scope()
  %13 = tail call ptr @wmem_file_scope()
  %14 = tail call noalias ptr @wmem_map_new_autoreset(ptr noundef %12, ptr noundef %13, ptr noundef nonnull @pdcp_result_hash_func, ptr noundef nonnull @pdcp_result_hash_equal)
  store ptr %14, ptr @pdcp_lte_sequence_analysis_report_hash, align 8
  %15 = tail call ptr @wmem_epan_scope()
  %16 = tail call ptr @wmem_file_scope()
  %17 = tail call noalias ptr @wmem_map_new_autoreset(ptr noundef %15, ptr noundef %16, ptr noundef nonnull @g_direct_hash, ptr noundef nonnull @g_direct_equal)
  store ptr %17, ptr @pdcp_security_hash, align 8
  %18 = tail call ptr @wmem_epan_scope()
  %19 = tail call ptr @wmem_file_scope()
  %20 = tail call noalias ptr @wmem_map_new_autoreset(ptr noundef %18, ptr noundef %19, ptr noundef nonnull @pdcp_lte_ueid_frame_hash_func, ptr noundef nonnull @pdcp_lte_ueid_frame_hash_equal)
  store ptr %20, ptr @pdcp_security_result_hash, align 8
  %21 = tail call ptr @wmem_epan_scope()
  %22 = tail call ptr @wmem_file_scope()
  %23 = tail call noalias ptr @wmem_map_new_autoreset(ptr noundef %21, ptr noundef %22, ptr noundef nonnull @g_direct_hash, ptr noundef nonnull @g_direct_equal)
  store ptr %23, ptr @pdcp_security_key_hash, align 8
  ret void
}